; Function Attrs: mustprogress nounwind uwtable
define void @_ZN4LIEF3DEX9PrototypeD2Ev(ptr noundef nonnull align 8 dereferenceable(40) %0) unnamed_addr #4 align 2 personality ptr @__gxx_personality_v0 {
  store ptr getelementptr inbounds ({ [7 x ptr] }, ptr @_ZTVN4LIEF3DEX9PrototypeE, i64 0, i32 0, i64 2), ptr %0, align 8
  %2 = getelementptr inbounds i8, ptr %0, i64 16
  %3 = load ptr, ptr %2, align 8
  %.not.i.i.i = icmp eq ptr %3, null
  br i1 %.not.i.i.i, label %_ZNSt6vectorIPN4LIEF3DEX4TypeESaIS3_EED2Ev.exit, label %4

4:                                                ; preds = %1
  tail call void @_ZdlPv(ptr noundef nonnull %3) #15
  br label %_ZNSt6vectorIPN4LIEF3DEX4TypeESaIS3_EED2Ev.exit

_ZNSt6vectorIPN4LIEF3DEX4TypeESaIS3_EED2Ev.exit:  ; preds = %1, %4
  tail call void @_ZN4LIEF6ObjectD2Ev(ptr noundef nonnull align 8 dereferenceable(8) %0) #14
  ret void
}